target datalayout = "e-m:e-p270:32:32-p271:32:32-p272:64:64-i64:64-i128:128-f80:128-n8:16:32:64-S128"
target triple = "x86_64-pc-linux-gnu"

%struct.RawStmt = type { i32, ptr, i32, i32 }
%struct.Node = type { i32 }

; Function Attrs: nounwind uwtable
define dso_local zeroext i1 @stmt_requires_parse_analysis(ptr noundef %0) #0 {
  %2 = alloca ptr, align 8
  %3 = alloca i8, align 1
  store ptr %0, ptr %2, align 8
  call void @llvm.lifetime.start.p0(i64 1, ptr %3) #8
  %4 = load ptr, ptr %2, align 8
  %5 = getelementptr inbounds nuw %struct.RawStmt, ptr %4, i32 0, i32 1
  %6 = load ptr, ptr %5, align 8
  %7 = getelementptr inbounds nuw %struct.Node, ptr %6, i32 0, i32 0
  %8 = load i32, ptr %7, align 4
  switch i32 %8, label %11 [
    i32 137, label %9
    i32 138, label %9
    i32 139, label %9
    i32 140, label %9
    i32 141, label %9
    i32 143, label %9
    i32 144, label %9
    i32 200, label %10
    i32 240, label %10
    i32 241, label %10
    i32 212, label %10
  ]

9:                                                ; preds = %1, %1, %1, %1, %1, %1, %1
  store i8 1, ptr %3, align 1
  br label %12

10:                                               ; preds = %1, %1, %1, %1
  store i8 1, ptr %3, align 1
  br label %12

11:                                               ; preds = %1
  store i8 0, ptr %3, align 1
  br label %12

12:                                               ; preds = %11, %10, %9
  %13 = load i8, ptr %3, align 1, !range !4, !noundef !5
  %14 = trunc i8 %13 to i1
  call void @llvm.lifetime.end.p0(i64 1, ptr %3) #8
  ret i1 %14
}