; Function Attrs: mustprogress nofree norecurse nosync nounwind willreturn memory(read, inaccessiblemem: none) uwtable
define dso_local noundef zeroext i1 @stmt_requires_parse_analysis(ptr noundef readonly captures(none) %0) local_unnamed_addr #3 {
  %2 = getelementptr inbounds nuw i8, ptr %0, i64 8
  %3 = load ptr, ptr %2, align 8
  %4 = load i32, ptr %3, align 4
  switch i32 %4, label %5 [
    i32 137, label %6
    i32 138, label %6
    i32 139, label %6
    i32 140, label %6
    i32 141, label %6
    i32 143, label %6
    i32 144, label %6
    i32 200, label %6
    i32 240, label %6
    i32 241, label %6
    i32 212, label %6
  ]

5:                                                ; preds = %1
  br label %6

6:                                                ; preds = %1, %1, %1, %1, %1, %1, %1, %1, %1, %1, %1, %5
  %.0 = phi i1 [ false, %5 ], [ true, %1 ], [ true, %1 ], [ true, %1 ], [ true, %1 ], [ true, %1 ], [ true, %1 ], [ true, %1 ], [ true, %1 ], [ true, %1 ], [ true, %1 ], [ true, %1 ]
  ret i1 %.0
}